target datalayout = "e-m:e-p270:32:32-p271:32:32-p272:64:64-i64:64-i128:128-f80:128-n8:16:32:64-S128"
target triple = "x86_64-pc-linux-gnu"

@proto_register_giop_coseventcomm.ett = internal global [5 x ptr] [ptr @ett_coseventcomm, ptr @ett_giop_struct, ptr @ett_giop_sequence, ptr @ett_giop_array, ptr @ett_giop_union], align 16
@.str.10 = private unnamed_addr constant [38 x i8] c"Coseventcomm Dissector Using GIOP API\00", align 1
@.str.11 = private unnamed_addr constant [18 x i8] c"GIOP/COSEVENTCOMM\00", align 1
@.str.12 = private unnamed_addr constant [18 x i8] c"giop-coseventcomm\00", align 1
@proto_coseventcomm = internal global i32 0, align 4

; Function Attrs: null_pointer_is_valid sspstrong uwtable
define hidden void @proto_register_giop_coseventcomm() #0 {
  %1 = alloca ptr, align 8
  call void @llvm.lifetime.start.p0(i64 8, ptr %1) #6
  %2 = call i32 @proto_register_protocol(ptr noundef @.str.10, ptr noundef @.str.11, ptr noundef @.str.12)
  store i32 %2, ptr @proto_coseventcomm, align 4
  %3 = load i32, ptr @proto_coseventcomm, align 4
  call void @proto_register_field_array(i32 noundef %3, ptr noundef @proto_register_giop_coseventcomm.hf, i32 noundef 2)
  call void @proto_register_subtree_array(ptr noundef @proto_register_giop_coseventcomm.ett, i32 noundef 5)
  %4 = load i32, ptr @proto_coseventcomm, align 4
  %5 = call ptr @expert_register_protocol(i32 noundef %4)
  store ptr %5, ptr %1, align 8
  %6 = load ptr, ptr %1, align 8
  call void @expert_register_field_array(ptr noundef %6, ptr noundef @proto_register_giop_coseventcomm.ei, i32 noundef 3)
  call void @llvm.lifetime.end.p0(i64 8, ptr %1) #6
  ret void
}